target datalayout = "e-m:e-p270:32:32-p271:32:32-p272:64:64-i64:64-i128:128-f80:128-n8:16:32:64-S128"
target triple = "x86_64-pc-linux-gnu"

%"class.pbrt::RGBSigmoidPolynomial" = type { float, float, float }
%"class.pbrt::RGB" = type { float, float, float }
%"class.pbrt::RGBAlbedoSpectrum" = type { %"class.pbrt::RGBSigmoidPolynomial" }

; Function Attrs: mustprogress uwtable
define dso_local void @_ZN4pbrt17RGBAlbedoSpectrumC2ERKNS_13RGBColorSpaceENS_3RGBE(ptr noundef nonnull align 4 dereferenceable(12) %0, ptr noundef nonnull align 8 dereferenceable(152) %1, <2 x float> %2, float %3) unnamed_addr #6 align 2 {
  %5 = alloca %"class.pbrt::RGB", align 4
  %6 = alloca { <2 x float>, float }, align 4
  %7 = alloca ptr, align 8
  %8 = alloca ptr, align 8
  %9 = alloca %"class.pbrt::RGBSigmoidPolynomial", align 4
  %10 = alloca %"class.pbrt::RGB", align 4
  %11 = alloca { <2 x float>, float }, align 4
  %12 = alloca { <2 x float>, float }, align 8
  %13 = getelementptr inbounds nuw { <2 x float>, float }, ptr %6, i32 0, i32 0
  store <2 x float> %2, ptr %13, align 4
  %14 = getelementptr inbounds nuw { <2 x float>, float }, ptr %6, i32 0, i32 1
  store float %3, ptr %14, align 4
  call void @llvm.memcpy.p0.p0.i64(ptr align 4 %5, ptr align 4 %6, i64 12, i1 false)
  store ptr %0, ptr %7, align 8, !tbaa !126
  store ptr %1, ptr %8, align 8, !tbaa !124
  %15 = load ptr, ptr %7, align 8
  br label %16

16:                                               ; preds = %4
  br label %17

17:                                               ; preds = %16
  br label %18

18:                                               ; preds = %17
  br label %19

19:                                               ; preds = %18
  call void @llvm.lifetime.start.p0(i64 12, ptr %9) #12
  %20 = load ptr, ptr %8, align 8, !tbaa !124
  call void @llvm.memcpy.p0.p0.i64(ptr align 4 %10, ptr align 4 %5, i64 12, i1 false), !tbaa.struct !32
  call void @llvm.memcpy.p0.p0.i64(ptr align 4 %11, ptr align 4 %10, i64 12, i1 false)
  %21 = getelementptr inbounds nuw { <2 x float>, float }, ptr %11, i32 0, i32 0
  %22 = load <2 x float>, ptr %21, align 4
  %23 = getelementptr inbounds nuw { <2 x float>, float }, ptr %11, i32 0, i32 1
  %24 = load float, ptr %23, align 4
  %25 = call { <2 x float>, float } @_ZNK4pbrt13RGBColorSpace11ToRGBCoeffsENS_3RGBE(ptr noundef nonnull align 8 dereferenceable(152) %20, <2 x float> %22, float %24)
  store { <2 x float>, float } %25, ptr %12, align 8
  call void @llvm.memcpy.p0.p0.i64(ptr align 4 %9, ptr align 8 %12, i64 12, i1 false)
  %26 = getelementptr inbounds nuw %"class.pbrt::RGBAlbedoSpectrum", ptr %15, i32 0, i32 0
  call void @llvm.memcpy.p0.p0.i64(ptr align 4 %26, ptr align 4 %9, i64 12, i1 false), !tbaa.struct !32
  call void @llvm.lifetime.end.p0(i64 12, ptr %9) #12
  ret void
}