; Function Attrs: mustprogress uwtable
define dso_local void @_ZN4pbrt17RGBAlbedoSpectrumC2ERKNS_13RGBColorSpaceENS_3RGBE(ptr noundef nonnull writeonly align 4 captures(none) dereferenceable(12) initializes((0, 12)) %0, ptr noundef nonnull align 8 dereferenceable(152) %1, <2 x float> %2, float %3) unnamed_addr #2 align 2 {
  %5 = tail call { <2 x float>, float } @_ZNK4pbrt13RGBColorSpace11ToRGBCoeffsENS_3RGBE(ptr noundef nonnull align 8 dereferenceable(152) %1, <2 x float> %2, float %3)
  %.fca.0.extract = extractvalue { <2 x float>, float } %5, 0
  %.fca.1.extract = extractvalue { <2 x float>, float } %5, 1
  store <2 x float> %.fca.0.extract, ptr %0, align 4
  %.sroa.4.0..sroa_idx = getelementptr inbounds nuw i8, ptr %0, i64 8
  store float %.fca.1.extract, ptr %.sroa.4.0..sroa_idx, align 4, !tbaa !16
  ret void
}